target datalayout = "e-m:e-p270:32:32-p271:32:32-p272:64:64-i64:64-i128:128-f80:128-n8:16:32:64-S128"
target triple = "x86_64-unknown-linux-gnu"

%"class.cvc5::internal::NodeTemplate" = type { ptr }
%"class.cvc5::internal::TrustNode" = type { i32, %"class.cvc5::internal::NodeTemplate", ptr }
%"class.cvc5::internal::theory::arith::nl::NlLemma" = type { %"class.cvc5::internal::theory::SimpleTheoryLemma", %"class.std::vector", ptr }
%"class.cvc5::internal::theory::SimpleTheoryLemma" = type { %"class.cvc5::internal::theory::TheoryInference.base", %"class.cvc5::internal::NodeTemplate", i32, ptr }
%"class.cvc5::internal::theory::TheoryInference.base" = type <{ ptr, i32 }>
%"class.std::vector" = type { %"struct.std::_Vector_base" }
%"struct.std::_Vector_base" = type { %"struct.std::_Vector_base<std::tuple<cvc5::internal::NodeTemplate<true>, unsigned int, cvc5::internal::NodeTemplate<true>>, std::allocator<std::tuple<cvc5::internal::NodeTemplate<true>, unsigned int, cvc5::internal::NodeTemplate<true>>>>::_Vector_impl" }
%"struct.std::_Vector_base<std::tuple<cvc5::internal::NodeTemplate<true>, unsigned int, cvc5::internal::NodeTemplate<true>>, std::allocator<std::tuple<cvc5::internal::NodeTemplate<true>, unsigned int, cvc5::internal::NodeTemplate<true>>>>::_Vector_impl" = type { %"struct.std::_Vector_base<std::tuple<cvc5::internal::NodeTemplate<true>, unsigned int, cvc5::internal::NodeTemplate<true>>, std::allocator<std::tuple<cvc5::internal::NodeTemplate<true>, unsigned int, cvc5::internal::NodeTemplate<true>>>>::_Vector_impl_data" }
%"struct.std::_Vector_base<std::tuple<cvc5::internal::NodeTemplate<true>, unsigned int, cvc5::internal::NodeTemplate<true>>, std::allocator<std::tuple<cvc5::internal::NodeTemplate<true>, unsigned int, cvc5::internal::NodeTemplate<true>>>>::_Vector_impl_data" = type { ptr, ptr, ptr }

; Function Attrs: mustprogress uwtable
define hidden void @_ZN4cvc58internal6theory5arith2nl7NlLemma12processLemmaERNS1_13LemmaPropertyE(ptr noalias sret(%"class.cvc5::internal::TrustNode") align 8 %agg.result, ptr noundef nonnull align 8 dereferenceable(72) %this, ptr noundef nonnull align 4 dereferenceable(4) %p) unnamed_addr #4 align 2 {
entry:
  %result.ptr = alloca ptr, align 8
  %this.addr = alloca ptr, align 8
  %p.addr = alloca ptr, align 8
  store ptr %agg.result, ptr %result.ptr, align 8
  store ptr %this, ptr %this.addr, align 8
  store ptr %p, ptr %p.addr, align 8
  %this1 = load ptr, ptr %this.addr, align 8
  %d_nlext = getelementptr inbounds %"class.cvc5::internal::theory::arith::nl::NlLemma", ptr %this1, i32 0, i32 2
  %0 = load ptr, ptr %d_nlext, align 8
  %cmp = icmp ne ptr %0, null
  br i1 %cmp, label %if.then, label %if.end

if.then:                                          ; preds = %entry
  %d_nlext2 = getelementptr inbounds %"class.cvc5::internal::theory::arith::nl::NlLemma", ptr %this1, i32 0, i32 2
  %1 = load ptr, ptr %d_nlext2, align 8
  call void @_ZN4cvc58internal6theory5arith2nl18NonlinearExtension17processSideEffectERKNS3_7NlLemmaE(ptr noundef nonnull align 8 dereferenceable(4264) %1, ptr noundef nonnull align 8 dereferenceable(72) %this1)
  br label %if.end

if.end:                                           ; preds = %if.then, %entry
  %2 = load ptr, ptr %p.addr, align 8
  call void @_ZN4cvc58internal6theory17SimpleTheoryLemma12processLemmaERNS1_13LemmaPropertyE(ptr sret(%"class.cvc5::internal::TrustNode") align 8 %agg.result, ptr noundef nonnull align 8 dereferenceable(40) %this1, ptr noundef nonnull align 4 dereferenceable(4) %2)
  ret void
}