; Function Attrs: mustprogress uwtable
define hidden void @_ZN4cvc58internal6theory5arith2nl7NlLemma12processLemmaERNS1_13LemmaPropertyE(ptr noalias sret(%"class.cvc5::internal::TrustNode") align 8 %agg.result, ptr noundef nonnull align 8 dereferenceable(72) %this, ptr noundef nonnull align 4 dereferenceable(4) %p) unnamed_addr #3 align 2 {
entry:
  %d_nlext = getelementptr inbounds i8, ptr %this, i64 64
  %0 = load ptr, ptr %d_nlext, align 8
  %cmp.not = icmp eq ptr %0, null
  br i1 %cmp.not, label %if.end, label %if.then

if.then:                                          ; preds = %entry
  tail call void @_ZN4cvc58internal6theory5arith2nl18NonlinearExtension17processSideEffectERKNS3_7NlLemmaE(ptr noundef nonnull align 8 dereferenceable(4264) %0, ptr noundef nonnull align 8 dereferenceable(72) %this)
  br label %if.end

if.end:                                           ; preds = %if.then, %entry
  tail call void @_ZN4cvc58internal6theory17SimpleTheoryLemma12processLemmaERNS1_13LemmaPropertyE(ptr sret(%"class.cvc5::internal::TrustNode") align 8 %agg.result, ptr noundef nonnull align 8 dereferenceable(40) %this, ptr noundef nonnull align 4 dereferenceable(4) %p)
  ret void
}